; ModuleID = '14/1101.c'
source_filename = "14/1101.c"
target datalayout = "e-m:e-p270:32:32-p271:32:32-p272:64:64-i64:64-f80:128-n8:16:32:64-S128"
target triple = "x86_64-pc-linux-gnu"

%struct.stu = type { i32, i32, i32 }

@.str = private unnamed_addr constant [3 x i8] c"%d\00", align 1
@.str.1 = private unnamed_addr constant [7 x i8] c"%d%d%d\00", align 1
@.str.2 = private unnamed_addr constant [19 x i8] c"%d %d\0A%d %d\0A%d %d\0A\00", align 1

; Function Attrs: noinline nounwind uwtable
define dso_local i32 @main() #0 {
  %1 = alloca i32, align 4
  %2 = alloca i32, align 4
  %3 = alloca i32, align 4
  %4 = alloca [100000 x i32], align 16
  %5 = alloca i32, align 4
  %6 = alloca i32, align 4
  %7 = alloca i32, align 4
  %8 = alloca i32, align 4
  %9 = alloca i32, align 4
  %10 = alloca i32, align 4
  %11 = alloca [100000 x %struct.stu], align 16
  store i32 0, i32* %1, align 4
  store i32 0, i32* %5, align 4
  store i32 0, i32* %6, align 4
  store i32 0, i32* %7, align 4
  store i32 0, i32* %8, align 4
  store i32 0, i32* %9, align 4
  store i32 0, i32* %10, align 4
  %12 = call i32 (i8*, ...) @__isoc99_scanf(i8* getelementptr inbounds ([3 x i8], [3 x i8]* @.str, i64 0, i64 0), i32* %2)
  store i32 0, i32* %3, align 4
  br label %13

13:                                               ; preds = %104, %0
  %14 = load i32, i32* %3, align 4
  %15 = load i32, i32* %2, align 4
  %16 = icmp slt i32 %14, %15
  br i1 %16, label %17, label %107

17:                                               ; preds = %13
  %18 = load i32, i32* %3, align 4
  %19 = sext i32 %18 to i64
  %20 = getelementptr inbounds [100000 x %struct.stu], [100000 x %struct.stu]* %11, i64 0, i64 %19
  %21 = getelementptr inbounds %struct.stu, %struct.stu* %20, i32 0, i32 0
  %22 = load i32, i32* %3, align 4
  %23 = sext i32 %22 to i64
  %24 = getelementptr inbounds [100000 x %struct.stu], [100000 x %struct.stu]* %11, i64 0, i64 %23
  %25 = getelementptr inbounds %struct.stu, %struct.stu* %24, i32 0, i32 1
  %26 = load i32, i32* %3, align 4
  %27 = sext i32 %26 to i64
  %28 = getelementptr inbounds [100000 x %struct.stu], [100000 x %struct.stu]* %11, i64 0, i64 %27
  %29 = getelementptr inbounds %struct.stu, %struct.stu* %28, i32 0, i32 2
  %30 = call i32 (i8*, ...) @__isoc99_scanf(i8* getelementptr inbounds ([7 x i8], [7 x i8]* @.str.1, i64 0, i64 0), i32* %21, i32* %25, i32* %29)
  %31 = load i32, i32* %3, align 4
  %32 = sext i32 %31 to i64
  %33 = getelementptr inbounds [100000 x %struct.stu], [100000 x %struct.stu]* %11, i64 0, i64 %32
  %34 = getelementptr inbounds %struct.stu, %struct.stu* %33, i32 0, i32 1
  %35 = load i32, i32* %34, align 4
  %36 = load i32, i32* %3, align 4
  %37 = sext i32 %36 to i64
  %38 = getelementptr inbounds [100000 x %struct.stu], [100000 x %struct.stu]* %11, i64 0, i64 %37
  %39 = getelementptr inbounds %struct.stu, %struct.stu* %38, i32 0, i32 2
  %40 = load i32, i32* %39, align 4
  %41 = add nsw i32 %35, %40
  %42 = load i32, i32* %3, align 4
  %43 = sext i32 %42 to i64
  %44 = getelementptr inbounds [100000 x i32], [100000 x i32]* %4, i64 0, i64 %43
  store i32 %41, i32* %44, align 4
  %45 = load i32, i32* %3, align 4
  %46 = sext i32 %45 to i64
  %47 = getelementptr inbounds [100000 x i32], [100000 x i32]* %4, i64 0, i64 %46
  %48 = load i32, i32* %47, align 4
  %49 = load i32, i32* %5, align 4
  %50 = icmp sgt i32 %48, %49
  br i1 %50, label %51, label %61

51:                                               ; preds = %17
  %52 = load i32, i32* %7, align 4
  store i32 %52, i32* %9, align 4
  %53 = load i32, i32* %5, align 4
  store i32 %53, i32* %7, align 4
  %54 = load i32, i32* %3, align 4
  %55 = sext i32 %54 to i64
  %56 = getelementptr inbounds [100000 x i32], [100000 x i32]* %4, i64 0, i64 %55
  %57 = load i32, i32* %56, align 4
  store i32 %57, i32* %5, align 4
  %58 = load i32, i32* %8, align 4
  store i32 %58, i32* %10, align 4
  %59 = load i32, i32* %6, align 4
  store i32 %59, i32* %8, align 4
  %60 = load i32, i32* %3, align 4
  store i32 %60, i32* %6, align 4
  br label %104

61:                                               ; preds = %17
  %62 = load i32, i32* %3, align 4
  %63 = sext i32 %62 to i64
  %64 = getelementptr inbounds [100000 x i32], [100000 x i32]* %4, i64 0, i64 %63
  %65 = load i32, i32* %64, align 4
  %66 = load i32, i32* %5, align 4
  %67 = icmp sle i32 %65, %66
  br i1 %67, label %68, label %83

68:                                               ; preds = %61
  %69 = load i32, i32* %3, align 4
  %70 = sext i32 %69 to i64
  %71 = getelementptr inbounds [100000 x i32], [100000 x i32]* %4, i64 0, i64 %70
  %72 = load i32, i32* %71, align 4
  %73 = load i32, i32* %7, align 4
  %74 = icmp sgt i32 %72, %73
  br i1 %74, label %75, label %83

75:                                               ; preds = %68
  %76 = load i32, i32* %7, align 4
  store i32 %76, i32* %9, align 4
  %77 = load i32, i32* %3, align 4
  %78 = sext i32 %77 to i64
  %79 = getelementptr inbounds [100000 x i32], [100000 x i32]* %4, i64 0, i64 %78
  %80 = load i32, i32* %79, align 4
  store i32 %80, i32* %7, align 4
  %81 = load i32, i32* %8, align 4
  store i32 %81, i32* %10, align 4
  %82 = load i32, i32* %3, align 4
  store i32 %82, i32* %8, align 4
  br label %104

83:                                               ; preds = %68, %61
  %84 = load i32, i32* %3, align 4
  %85 = sext i32 %84 to i64
  %86 = getelementptr inbounds [100000 x i32], [100000 x i32]* %4, i64 0, i64 %85
  %87 = load i32, i32* %86, align 4
  %88 = load i32, i32* %7, align 4
  %89 = icmp sle i32 %87, %88
  br i1 %89, label %90, label %103

90:                                               ; preds = %83
  %91 = load i32, i32* %3, align 4
  %92 = sext i32 %91 to i64
  %93 = getelementptr inbounds [100000 x i32], [100000 x i32]* %4, i64 0, i64 %92
  %94 = load i32, i32* %93, align 4
  %95 = load i32, i32* %9, align 4
  %96 = icmp sgt i32 %94, %95
  br i1 %96, label %97, label %103

97:                                               ; preds = %90
  %98 = load i32, i32* %3, align 4
  %99 = sext i32 %98 to i64
  %100 = getelementptr inbounds [100000 x i32], [100000 x i32]* %4, i64 0, i64 %99
  %101 = load i32, i32* %100, align 4
  store i32 %101, i32* %9, align 4
  %102 = load i32, i32* %3, align 4
  store i32 %102, i32* %10, align 4
  br label %104

103:                                              ; preds = %90, %83
  br label %104

104:                                              ; preds = %103, %97, %75, %51
  %105 = load i32, i32* %3, align 4
  %106 = add nsw i32 %105, 1
  store i32 %106, i32* %3, align 4
  br label %13

107:                                              ; preds = %13
  %108 = load i32, i32* %6, align 4
  %109 = sext i32 %108 to i64
  %110 = getelementptr inbounds [100000 x %struct.stu], [100000 x %struct.stu]* %11, i64 0, i64 %109
  %111 = getelementptr inbounds %struct.stu, %struct.stu* %110, i32 0, i32 0
  %112 = load i32, i32* %111, align 4
  %113 = load i32, i32* %5, align 4
  %114 = load i32, i32* %8, align 4
  %115 = sext i32 %114 to i64
  %116 = getelementptr inbounds [100000 x %struct.stu], [100000 x %struct.stu]* %11, i64 0, i64 %115
  %117 = getelementptr inbounds %struct.stu, %struct.stu* %116, i32 0, i32 0
  %118 = load i32, i32* %117, align 4
  %119 = load i32, i32* %7, align 4
  %120 = load i32, i32* %10, align 4
  %121 = sext i32 %120 to i64
  %122 = getelementptr inbounds [100000 x %struct.stu], [100000 x %struct.stu]* %11, i64 0, i64 %121
  %123 = getelementptr inbounds %struct.stu, %struct.stu* %122, i32 0, i32 0
  %124 = load i32, i32* %123, align 4
  %125 = load i32, i32* %9, align 4
  %126 = call i32 (i8*, ...) @printf(i8* getelementptr inbounds ([19 x i8], [19 x i8]* @.str.2, i64 0, i64 0), i32 %112, i32 %113, i32 %118, i32 %119, i32 %124, i32 %125)
  ret i32 0
}

declare dso_local i32 @__isoc99_scanf(i8*, ...) #1

declare dso_local i32 @printf(i8*, ...) #1


!llvm.module.flags = !{!0}
!llvm.ident = !{!1}

!0 = !{i32 1, !"wchar_size", i32 4}
!1 = !{!"clang version 10.0.0-4ubuntu1 "}
